; ModuleID = '40/666.c'
source_filename = "40/666.c"
target datalayout = "e-m:e-p270:32:32-p271:32:32-p272:64:64-i64:64-f80:128-n8:16:32:64-S128"
target triple = "x86_64-pc-linux-gnu"

@.str = private unnamed_addr constant [13 x i8] c"%lf%lf%lf%lf\00", align 1
@.str.1 = private unnamed_addr constant [4 x i8] c"%lf\00", align 1
@.str.2 = private unnamed_addr constant [6 x i8] c"%.4lf\00", align 1
@.str.3 = private unnamed_addr constant [14 x i8] c"Invalid input\00", align 1

; Function Attrs: noinline nounwind uwtable
define dso_local i32 @main() #0 {
  %1 = alloca i32, align 4
  %2 = alloca double, align 8
  %3 = alloca double, align 8
  %4 = alloca double, align 8
  %5 = alloca double, align 8
  %6 = alloca double, align 8
  %7 = alloca double, align 8
  %8 = alloca double, align 8
  %9 = alloca double, align 8
  %10 = alloca double, align 8
  store i32 0, i32* %1, align 4
  store double 0x400921FB4D12D84A, double* %2, align 8
  %11 = call i32 (i8*, ...) @__isoc99_scanf(i8* getelementptr inbounds ([13 x i8], [13 x i8]* @.str, i64 0, i64 0), double* %3, double* %4, double* %5, double* %6)
  %12 = call i32 (i8*, ...) @__isoc99_scanf(i8* getelementptr inbounds ([4 x i8], [4 x i8]* @.str.1, i64 0, i64 0), double* %7)
  %13 = load double, double* %7, align 8
  %14 = fmul double %13, 2.000000e+00
  %15 = load double, double* %2, align 8
  %16 = fmul double %14, %15
  %17 = fdiv double %16, 3.600000e+02
  store double %17, double* %8, align 8
  %18 = load double, double* %3, align 8
  %19 = load double, double* %4, align 8
  %20 = fadd double %18, %19
  %21 = load double, double* %5, align 8
  %22 = fadd double %20, %21
  %23 = load double, double* %6, align 8
  %24 = fadd double %22, %23
  %25 = fdiv double %24, 2.000000e+00
  store double %25, double* %9, align 8
  %26 = load double, double* %9, align 8
  %27 = load double, double* %3, align 8
  %28 = fsub double %26, %27
  %29 = load double, double* %9, align 8
  %30 = load double, double* %4, align 8
  %31 = fsub double %29, %30
  %32 = fmul double %28, %31
  %33 = load double, double* %9, align 8
  %34 = load double, double* %5, align 8
  %35 = fsub double %33, %34
  %36 = fmul double %32, %35
  %37 = load double, double* %9, align 8
  %38 = load double, double* %6, align 8
  %39 = fsub double %37, %38
  %40 = fmul double %36, %39
  %41 = load double, double* %3, align 8
  %42 = load double, double* %4, align 8
  %43 = fmul double %41, %42
  %44 = load double, double* %5, align 8
  %45 = fmul double %43, %44
  %46 = load double, double* %6, align 8
  %47 = fmul double %45, %46
  %48 = load double, double* %8, align 8
  %49 = fdiv double %48, 2.000000e+00
  %50 = call double @cos(double %49) #3
  %51 = fmul double %47, %50
  %52 = load double, double* %8, align 8
  %53 = fdiv double %52, 2.000000e+00
  %54 = call double @cos(double %53) #3
  %55 = fmul double %51, %54
  %56 = fsub double %40, %55
  %57 = call double @sqrt(double %56) #3
  store double %57, double* %10, align 8
  %58 = load double, double* %9, align 8
  %59 = load double, double* %3, align 8
  %60 = fsub double %58, %59
  %61 = load double, double* %9, align 8
  %62 = load double, double* %4, align 8
  %63 = fsub double %61, %62
  %64 = fmul double %60, %63
  %65 = load double, double* %9, align 8
  %66 = load double, double* %5, align 8
  %67 = fsub double %65, %66
  %68 = fmul double %64, %67
  %69 = load double, double* %9, align 8
  %70 = load double, double* %6, align 8
  %71 = fsub double %69, %70
  %72 = fmul double %68, %71
  %73 = load double, double* %3, align 8
  %74 = load double, double* %4, align 8
  %75 = fmul double %73, %74
  %76 = load double, double* %5, align 8
  %77 = fmul double %75, %76
  %78 = load double, double* %6, align 8
  %79 = fmul double %77, %78
  %80 = load double, double* %8, align 8
  %81 = fdiv double %80, 2.000000e+00
  %82 = call double @cos(double %81) #3
  %83 = fmul double %79, %82
  %84 = load double, double* %8, align 8
  %85 = fdiv double %84, 2.000000e+00
  %86 = call double @cos(double %85) #3
  %87 = fmul double %83, %86
  %88 = fsub double %72, %87
  %89 = fcmp oge double %88, 0.000000e+00
  br i1 %89, label %90, label %93

90:                                               ; preds = %0
  %91 = load double, double* %10, align 8
  %92 = call i32 (i8*, ...) @printf(i8* getelementptr inbounds ([6 x i8], [6 x i8]* @.str.2, i64 0, i64 0), double %91)
  br label %95

93:                                               ; preds = %0
  %94 = call i32 (i8*, ...) @printf(i8* getelementptr inbounds ([14 x i8], [14 x i8]* @.str.3, i64 0, i64 0))
  br label %95

95:                                               ; preds = %93, %90
  ret i32 0
}

declare dso_local i32 @__isoc99_scanf(i8*, ...) #1

; Function Attrs: nounwind
declare dso_local double @sqrt(double) #2

; Function Attrs: nounwind
declare dso_local double @cos(double) #2

declare dso_local i32 @printf(i8*, ...) #1


!llvm.module.flags = !{!0}
!llvm.ident = !{!1}

!0 = !{i32 1, !"wchar_size", i32 4}
!1 = !{!"clang version 10.0.0-4ubuntu1 "}
